target datalayout = "e-m:e-p270:32:32-p271:32:32-p272:64:64-i64:64-i128:128-f80:128-n8:16:32:64-S128"
target triple = "x86_64-pc-linux-gnu"

%struct._lv_calendar_t = type { %struct._lv_obj_t, ptr, %struct.lv_calendar_date_t, %struct.lv_calendar_date_t, ptr, i64, [56 x ptr], i8, [42 x [20 x i8]] }
%struct._lv_obj_t = type { ptr, ptr, ptr, ptr, ptr, %struct.lv_area_t, i32, i16, i16 }
%struct.lv_area_t = type { i32, i32, i32, i32 }
%struct.lv_calendar_date_t = type { i16, i8, i8 }

; Function Attrs: nounwind uwtable
define void @lv_calendar_set_today_date(ptr noundef %0, i32 noundef %1, i32 noundef %2, i32 noundef %3) #0 {
  %5 = alloca ptr, align 8
  %6 = alloca i32, align 4
  %7 = alloca i32, align 4
  %8 = alloca i32, align 4
  %9 = alloca ptr, align 8
  store ptr %0, ptr %5, align 8, !tbaa !3
  store i32 %1, ptr %6, align 4, !tbaa !27
  store i32 %2, ptr %7, align 4, !tbaa !27
  store i32 %3, ptr %8, align 4, !tbaa !27
  br label %10

10:                                               ; preds = %4
  br label %11

11:                                               ; preds = %10
  call void @llvm.lifetime.start.p0(i64 8, ptr %9) #5
  %12 = load ptr, ptr %5, align 8, !tbaa !3
  store ptr %12, ptr %9, align 8, !tbaa !3
  %13 = load i32, ptr %6, align 4, !tbaa !27
  %14 = trunc i32 %13 to i16
  %15 = load ptr, ptr %9, align 8, !tbaa !3
  %16 = getelementptr inbounds nuw %struct._lv_calendar_t, ptr %15, i32 0, i32 2
  %17 = getelementptr inbounds nuw %struct.lv_calendar_date_t, ptr %16, i32 0, i32 0
  store i16 %14, ptr %17, align 8, !tbaa !7
  %18 = load i32, ptr %7, align 4, !tbaa !27
  %19 = trunc i32 %18 to i8
  %20 = load ptr, ptr %9, align 8, !tbaa !3
  %21 = getelementptr inbounds nuw %struct._lv_calendar_t, ptr %20, i32 0, i32 2
  %22 = getelementptr inbounds nuw %struct.lv_calendar_date_t, ptr %21, i32 0, i32 1
  store i8 %19, ptr %22, align 2, !tbaa !16
  %23 = load i32, ptr %8, align 4, !tbaa !27
  %24 = trunc i32 %23 to i8
  %25 = load ptr, ptr %9, align 8, !tbaa !3
  %26 = getelementptr inbounds nuw %struct._lv_calendar_t, ptr %25, i32 0, i32 2
  %27 = getelementptr inbounds nuw %struct.lv_calendar_date_t, ptr %26, i32 0, i32 2
  store i8 %24, ptr %27, align 1, !tbaa !17
  %28 = load ptr, ptr %5, align 8, !tbaa !3
  call void @highlight_update(ptr noundef %28)
  call void @llvm.lifetime.end.p0(i64 8, ptr %9) #5
  ret void
}