; Function Attrs: nounwind uwtable
define void @lv_calendar_set_today_date(ptr nocapture noundef %0, i32 noundef %1, i32 noundef %2, i32 noundef %3) local_unnamed_addr #0 {
  %5 = trunc i32 %1 to i16
  %6 = getelementptr inbounds nuw i8, ptr %0, i64 72
  store i16 %5, ptr %6, align 8, !tbaa !3
  %7 = trunc i32 %2 to i8
  %8 = getelementptr inbounds nuw i8, ptr %0, i64 74
  store i8 %7, ptr %8, align 2, !tbaa !15
  %9 = trunc i32 %3 to i8
  %10 = getelementptr inbounds nuw i8, ptr %0, i64 75
  store i8 %9, ptr %10, align 1, !tbaa !16
  tail call fastcc void @highlight_update(ptr noundef %0)
  ret void
}